; Function Attrs: nounwind uwtable
define void @lv_matrix_scale(ptr noundef %0, float noundef %1, float noundef %2) local_unnamed_addr #1 {
  %4 = alloca %struct._lv_matrix_t, align 4
  %5 = alloca %struct._lv_matrix_t, align 4
  call void @llvm.lifetime.start.p0(i64 36, ptr nonnull %5) #9
  store float %1, ptr %5, align 4, !tbaa !3
  %6 = getelementptr inbounds i8, ptr %5, i64 4
  store float 0.000000e+00, ptr %6, align 4, !tbaa !3
  %7 = getelementptr inbounds i8, ptr %5, i64 8
  store float 0.000000e+00, ptr %7, align 4, !tbaa !3
  %8 = getelementptr inbounds i8, ptr %5, i64 12
  store float 0.000000e+00, ptr %8, align 4, !tbaa !3
  %9 = getelementptr inbounds i8, ptr %5, i64 16
  store float %2, ptr %9, align 4, !tbaa !3
  %10 = getelementptr inbounds i8, ptr %5, i64 20
  store float 0.000000e+00, ptr %10, align 4, !tbaa !3
  %11 = getelementptr inbounds i8, ptr %5, i64 24
  store float 0.000000e+00, ptr %11, align 4, !tbaa !3
  %12 = getelementptr inbounds i8, ptr %5, i64 28
  store float 0.000000e+00, ptr %12, align 4, !tbaa !3
  %13 = getelementptr inbounds i8, ptr %5, i64 32
  store float 1.000000e+00, ptr %13, align 4, !tbaa !3
  call void @llvm.lifetime.start.p0(i64 36, ptr nonnull %4) #9
  br label %.preheader.i

.preheader.i:                                     ; preds = %20, %3
  %indvars.iv22.i = phi i64 [ 0, %3 ], [ %indvars.iv.next23.i, %20 ]
  %14 = getelementptr inbounds [3 x [3 x float]], ptr %0, i64 0, i64 %indvars.iv22.i
  %15 = load float, ptr %14, align 4, !tbaa !3
  %16 = getelementptr inbounds i8, ptr %14, i64 4
  %17 = load float, ptr %16, align 4, !tbaa !3
  %18 = getelementptr inbounds i8, ptr %14, i64 8
  %19 = load float, ptr %18, align 4, !tbaa !3
  br label %21

20:                                               ; preds = %21
  %indvars.iv.next23.i = add nuw nsw i64 %indvars.iv22.i, 1
  %exitcond25.not.i = icmp eq i64 %indvars.iv.next23.i, 3
  br i1 %exitcond25.not.i, label %lv_matrix_multiply.exit, label %.preheader.i, !llvm.loop !7

21:                                               ; preds = %21, %.preheader.i
  %indvars.iv.i = phi i64 [ 0, %.preheader.i ], [ %indvars.iv.next.i, %21 ]
  %22 = getelementptr inbounds [3 x float], ptr %5, i64 0, i64 %indvars.iv.i
  %23 = load float, ptr %22, align 4, !tbaa !3
  %24 = getelementptr inbounds [3 x float], ptr %8, i64 0, i64 %indvars.iv.i
  %25 = load float, ptr %24, align 4, !tbaa !3
  %26 = fmul float %17, %25
  %27 = tail call float @llvm.fmuladd.f32(float %15, float %23, float %26)
  %28 = getelementptr inbounds [3 x float], ptr %11, i64 0, i64 %indvars.iv.i
  %29 = load float, ptr %28, align 4, !tbaa !3
  %30 = tail call float @llvm.fmuladd.f32(float %19, float %29, float %27)
  %31 = getelementptr inbounds [3 x [3 x float]], ptr %4, i64 0, i64 %indvars.iv22.i, i64 %indvars.iv.i
  store float %30, ptr %31, align 4, !tbaa !3
  %indvars.iv.next.i = add nuw nsw i64 %indvars.iv.i, 1
  %exitcond.not.i = icmp eq i64 %indvars.iv.next.i, 3
  br i1 %exitcond.not.i, label %20, label %21, !llvm.loop !9

lv_matrix_multiply.exit:                          ; preds = %20
  %32 = call ptr @lv_memcpy(ptr noundef %0, ptr noundef nonnull %4, i64 noundef 36) #9
  call void @llvm.lifetime.end.p0(i64 36, ptr nonnull %4) #9
  call void @llvm.lifetime.end.p0(i64 36, ptr nonnull %5) #9
  ret void
}